target datalayout = "e-m:e-p270:32:32-p271:32:32-p272:64:64-i64:64-i128:128-f80:128-n8:16:32:64-S128"
target triple = "x86_64-pc-linux-gnu"

%"class.std::__cxx11::basic_string" = type { %"struct.std::__cxx11::basic_string<char>::_Alloc_hider", i64, %union.anon }
%"struct.std::__cxx11::basic_string<char>::_Alloc_hider" = type { ptr }
%union.anon = type { i64, [8 x i8] }
%"class.std::vector" = type { %"struct.std::_Vector_base" }
%"struct.std::_Vector_base" = type { %"struct.std::_Vector_base<std::filesystem::__cxx11::path, std::allocator<std::filesystem::__cxx11::path>>::_Vector_impl" }
%"struct.std::_Vector_base<std::filesystem::__cxx11::path, std::allocator<std::filesystem::__cxx11::path>>::_Vector_impl" = type { %"struct.std::_Vector_base<std::filesystem::__cxx11::path, std::allocator<std::filesystem::__cxx11::path>>::_Vector_impl_data" }
%"struct.std::_Vector_base<std::filesystem::__cxx11::path, std::allocator<std::filesystem::__cxx11::path>>::_Vector_impl_data" = type { ptr, ptr, ptr }

; Function Attrs: mustprogress nounwind uwtable
define linkonce_odr void @_ZNSt15__new_allocatorINSt10filesystem7__cxx114pathEEC2Ev(ptr noundef nonnull align 1 dereferenceable(1) %0) unnamed_addr #1 comdat align 2 {
  %2 = alloca ptr, align 8
  store ptr %0, ptr %2, align 8
  ret void
}

; Function Attrs: mustprogress nounwind uwtable
define linkonce_odr void @_ZNSt12_Vector_baseINSt10filesystem7__cxx114pathESaIS2_EE17_Vector_impl_dataC2Ev(ptr noundef nonnull align 8 dereferenceable(24) %0) unnamed_addr #1 comdat align 2 {
  %2 = alloca ptr, align 8
  store ptr %0, ptr %2, align 8
  %3 = load ptr, ptr %2, align 8
  %4 = getelementptr inbounds %"struct.std::_Vector_base<std::filesystem::__cxx11::path, std::allocator<std::filesystem::__cxx11::path>>::_Vector_impl_data", ptr %3, i32 0, i32 0
  store ptr null, ptr %4, align 8
  %5 = getelementptr inbounds %"struct.std::_Vector_base<std::filesystem::__cxx11::path, std::allocator<std::filesystem::__cxx11::path>>::_Vector_impl_data", ptr %3, i32 0, i32 1
  store ptr null, ptr %5, align 8
  %6 = getelementptr inbounds %"struct.std::_Vector_base<std::filesystem::__cxx11::path, std::allocator<std::filesystem::__cxx11::path>>::_Vector_impl_data", ptr %3, i32 0, i32 2
  store ptr null, ptr %6, align 8
  ret void
}

; Function Attrs: mustprogress nounwind uwtable
define linkonce_odr void @_ZNSaINSt10filesystem7__cxx114pathEEC2Ev(ptr noundef nonnull align 1 dereferenceable(1) %0) unnamed_addr #1 comdat align 2 {
  %2 = alloca ptr, align 8
  store ptr %0, ptr %2, align 8
  %3 = load ptr, ptr %2, align 8
  call void @_ZNSt15__new_allocatorINSt10filesystem7__cxx114pathEEC2Ev(ptr noundef nonnull align 1 dereferenceable(1) %3) #13
  ret void
}

; Function Attrs: mustprogress nounwind uwtable
define linkonce_odr void @_ZNSt12_Vector_baseINSt10filesystem7__cxx114pathESaIS2_EE12_Vector_implC2Ev(ptr noundef nonnull align 8 dereferenceable(24) %0) unnamed_addr #1 comdat align 2 {
  %2 = alloca ptr, align 8
  store ptr %0, ptr %2, align 8
  %3 = load ptr, ptr %2, align 8
  call void @_ZNSaINSt10filesystem7__cxx114pathEEC2Ev(ptr noundef nonnull align 1 dereferenceable(1) %3) #13
  call void @_ZNSt12_Vector_baseINSt10filesystem7__cxx114pathESaIS2_EE17_Vector_impl_dataC2Ev(ptr noundef nonnull align 8 dereferenceable(24) %3) #13
  ret void
}

; Function Attrs: mustprogress nounwind uwtable
define linkonce_odr void @_ZNSt12_Vector_baseINSt10filesystem7__cxx114pathESaIS2_EEC2Ev(ptr noundef nonnull align 8 dereferenceable(24) %0) unnamed_addr #1 comdat align 2 {
  %2 = alloca ptr, align 8
  store ptr %0, ptr %2, align 8
  %3 = load ptr, ptr %2, align 8
  %4 = getelementptr inbounds %"struct.std::_Vector_base", ptr %3, i32 0, i32 0
  call void @_ZNSt12_Vector_baseINSt10filesystem7__cxx114pathESaIS2_EE12_Vector_implC2Ev(ptr noundef nonnull align 8 dereferenceable(24) %4) #13
  ret void
}

; Function Attrs: mustprogress nounwind uwtable
define linkonce_odr void @_ZNSt6vectorINSt10filesystem7__cxx114pathESaIS2_EEC2Ev(ptr noundef nonnull align 8 dereferenceable(24) %0) unnamed_addr #1 comdat align 2 {
  %2 = alloca ptr, align 8
  store ptr %0, ptr %2, align 8
  %3 = load ptr, ptr %2, align 8
  call void @_ZNSt12_Vector_baseINSt10filesystem7__cxx114pathESaIS2_EEC2Ev(ptr noundef nonnull align 8 dereferenceable(24) %3) #13
  ret void
}

; Function Attrs: mustprogress uwtable
define void @_ZN3gmx20splitPathEnvironmentERKNSt7__cxx1112basic_stringIcSt11char_traitsIcESaIcEEE(ptr dead_on_unwind noalias writable sret(%"class.std::vector") align 8 %0, ptr noundef nonnull align 8 dereferenceable(32) %1) #0 personality ptr @__gxx_personality_v0 {
  %3 = alloca ptr, align 8
  %4 = alloca ptr, align 8
  %5 = alloca i1, align 1
  %6 = alloca i64, align 8
  %7 = alloca i64, align 8
  %8 = alloca %"class.std::__cxx11::basic_string", align 8
  %9 = alloca ptr, align 8
  %10 = alloca i32, align 4
  store ptr %0, ptr %3, align 8
  store ptr %1, ptr %4, align 8
  store i1 false, ptr %5, align 1
  call void @_ZNSt6vectorINSt10filesystem7__cxx114pathESaIS2_EEC2Ev(ptr noundef nonnull align 8 dereferenceable(24) %0) #13
  store i64 0, ptr %6, align 8
  store i64 0, ptr %7, align 8
  br label %11

11:                                               ; preds = %25, %2
  %12 = load ptr, ptr %4, align 8
  %13 = load i64, ptr %6, align 8
  %14 = call noundef i64 @_ZNKSt7__cxx1112basic_stringIcSt11char_traitsIcESaIcEE4findEcm(ptr noundef nonnull align 8 dereferenceable(32) %12, i8 noundef signext 58, i64 noundef %13) #13
  store i64 %14, ptr %7, align 8
  %15 = load ptr, ptr %4, align 8
  %16 = load i64, ptr %6, align 8
  %17 = load i64, ptr %7, align 8
  %18 = load i64, ptr %6, align 8
  %19 = sub i64 %17, %18
  invoke void @_ZNKSt7__cxx1112basic_stringIcSt11char_traitsIcESaIcEE6substrEmm(ptr dead_on_unwind writable sret(%"class.std::__cxx11::basic_string") align 8 %8, ptr noundef nonnull align 8 dereferenceable(32) %15, i64 noundef %16, i64 noundef %19)
          to label %20 unwind label %30

20:                                               ; preds = %11
  %21 = invoke noundef nonnull align 8 dereferenceable(40) ptr @_ZNSt6vectorINSt10filesystem7__cxx114pathESaIS2_EE12emplace_backIJNSt7__cxx1112basic_stringIcSt11char_traitsIcESaIcEEEEEERS2_DpOT_(ptr noundef nonnull align 8 dereferenceable(24) %0, ptr noundef nonnull align 8 dereferenceable(32) %8)
          to label %22 unwind label %34

22:                                               ; preds = %20
  call void @_ZNSt7__cxx1112basic_stringIcSt11char_traitsIcESaIcEED1Ev(ptr noundef nonnull align 8 dereferenceable(32) %8) #13
  %23 = load i64, ptr %7, align 8
  %24 = add i64 %23, 1
  store i64 %24, ptr %6, align 8
  br label %25

25:                                               ; preds = %22
  %26 = load i64, ptr %7, align 8
  %27 = icmp ne i64 %26, -1
  br i1 %27, label %11, label %28, !llvm.loop !8

28:                                               ; preds = %25
  store i1 true, ptr %5, align 1
  %29 = load i1, ptr %5, align 1
  br i1 %29, label %39, label %38

30:                                               ; preds = %11
  %31 = landingpad { ptr, i32 }
          cleanup
  %32 = extractvalue { ptr, i32 } %31, 0
  store ptr %32, ptr %9, align 8
  %33 = extractvalue { ptr, i32 } %31, 1
  store i32 %33, ptr %10, align 4
  br label %40

34:                                               ; preds = %20
  %35 = landingpad { ptr, i32 }
          cleanup
  %36 = extractvalue { ptr, i32 } %35, 0
  store ptr %36, ptr %9, align 8
  %37 = extractvalue { ptr, i32 } %35, 1
  store i32 %37, ptr %10, align 4
  call void @_ZNSt7__cxx1112basic_stringIcSt11char_traitsIcESaIcEED1Ev(ptr noundef nonnull align 8 dereferenceable(32) %8) #13
  br label %40

38:                                               ; preds = %28
  call void @_ZNSt6vectorINSt10filesystem7__cxx114pathESaIS2_EED2Ev(ptr noundef nonnull align 8 dereferenceable(24) %0) #13
  br label %39

39:                                               ; preds = %38, %28
  ret void

40:                                               ; preds = %34, %30
  call void @_ZNSt6vectorINSt10filesystem7__cxx114pathESaIS2_EED2Ev(ptr noundef nonnull align 8 dereferenceable(24) %0) #13
  br label %41

41:                                               ; preds = %40
  %42 = load ptr, ptr %9, align 8
  %43 = load i32, ptr %10, align 4
  %44 = insertvalue { ptr, i32 } poison, ptr %42, 0
  %45 = insertvalue { ptr, i32 } %44, i32 %43, 1
  resume { ptr, i32 } %45
}