; Function Attrs: mustprogress uwtable
define void @_ZN3gmx20splitPathEnvironmentERKNSt7__cxx1112basic_stringIcSt11char_traitsIcESaIcEEE(ptr dead_on_unwind noalias writable sret(%"class.std::vector") align 8 %0, ptr noundef nonnull align 8 dereferenceable(32) %1) local_unnamed_addr #0 personality ptr @__gxx_personality_v0 {
  %3 = alloca %"class.std::__cxx11::basic_string", align 8
  tail call void @llvm.memset.p0.i64(ptr noundef nonnull align 8 dereferenceable(24) %0, i8 0, i64 24, i1 false)
  br label %4

4:                                                ; preds = %9, %2
  %.011 = phi i64 [ 0, %2 ], [ %10, %9 ]
  %5 = call noundef i64 @_ZNKSt7__cxx1112basic_stringIcSt11char_traitsIcESaIcEE4findEcm(ptr noundef nonnull align 8 dereferenceable(32) %1, i8 noundef signext 58, i64 noundef %.011) #20
  %6 = sub i64 %5, %.011
  invoke void @_ZNKSt7__cxx1112basic_stringIcSt11char_traitsIcESaIcEE6substrEmm(ptr dead_on_unwind nonnull writable sret(%"class.std::__cxx11::basic_string") align 8 %3, ptr noundef nonnull align 8 dereferenceable(32) %1, i64 noundef %.011, i64 noundef %6)
          to label %7 unwind label %11

7:                                                ; preds = %4
  %8 = invoke noundef nonnull align 8 dereferenceable(40) ptr @_ZNSt6vectorINSt10filesystem7__cxx114pathESaIS2_EE12emplace_backIJNSt7__cxx1112basic_stringIcSt11char_traitsIcESaIcEEEEEERS2_DpOT_(ptr noundef nonnull align 8 dereferenceable(24) %0, ptr noundef nonnull align 8 dereferenceable(32) %3)
          to label %9 unwind label %13

9:                                                ; preds = %7
  call void @_ZNSt7__cxx1112basic_stringIcSt11char_traitsIcESaIcEED1Ev(ptr noundef nonnull align 8 dereferenceable(32) %3) #20
  %10 = add nuw i64 %5, 1
  %.not = icmp eq i64 %5, -1
  br i1 %.not, label %15, label %4, !llvm.loop !35

11:                                               ; preds = %4
  %12 = landingpad { ptr, i32 }
          cleanup
  br label %16

13:                                               ; preds = %7
  %14 = landingpad { ptr, i32 }
          cleanup
  call void @_ZNSt7__cxx1112basic_stringIcSt11char_traitsIcESaIcEED1Ev(ptr noundef nonnull align 8 dereferenceable(32) %3) #20
  br label %16

15:                                               ; preds = %9
  ret void

16:                                               ; preds = %13, %11
  %.pn = phi { ptr, i32 } [ %14, %13 ], [ %12, %11 ]
  call void @_ZNSt6vectorINSt10filesystem7__cxx114pathESaIS2_EED2Ev(ptr noundef nonnull align 8 dereferenceable(24) %0) #20
  resume { ptr, i32 } %.pn
}